; Function Attrs: mustprogress uwtable
define void @_Z11done_matrixiPPPf(i32 noundef %0, ptr nocapture noundef %1) local_unnamed_addr #0 {
  %3 = icmp sgt i32 %0, 0
  br i1 %3, label %.lr.ph.preheader, label %._crit_edge

.lr.ph.preheader:                                 ; preds = %2
  %wide.trip.count = zext nneg i32 %0 to i64
  br label %.lr.ph

.lr.ph:                                           ; preds = %.lr.ph.preheader, %.lr.ph
  %indvars.iv = phi i64 [ 0, %.lr.ph.preheader ], [ %indvars.iv.next, %.lr.ph ]
  %4 = load ptr, ptr %1, align 8
  %5 = getelementptr inbounds ptr, ptr %4, i64 %indvars.iv
  %6 = load ptr, ptr %5, align 8
  tail call void @_Z9save_freePKcS0_iPv(ptr noundef nonnull @.str.4, ptr noundef nonnull @.str.1, i32 noundef 99, ptr noundef %6)
  %indvars.iv.next = add nuw nsw i64 %indvars.iv, 1
  %exitcond.not = icmp eq i64 %indvars.iv.next, %wide.trip.count
  br i1 %exitcond.not, label %._crit_edge, label %.lr.ph, !llvm.loop !7

._crit_edge:                                      ; preds = %.lr.ph, %2
  %7 = load ptr, ptr %1, align 8
  tail call void @_Z9save_freePKcS0_iPv(ptr noundef nonnull @.str.5, ptr noundef nonnull @.str.1, i32 noundef 101, ptr noundef %7)
  store ptr null, ptr %1, align 8
  ret void
}